target datalayout = "e-m:e-p270:32:32-p271:32:32-p272:64:64-i64:64-i128:128-f80:128-n8:16:32:64-S128"
target triple = "x86_64-pc-linux-gnu"

%struct.mbedtls_ecp_group = type { i32, %struct.mbedtls_mpi, %struct.mbedtls_mpi, %struct.mbedtls_mpi, %struct.mbedtls_ecp_point, %struct.mbedtls_mpi, i64, i64, i32, ptr, ptr, ptr, ptr, ptr, i64 }
%struct.mbedtls_ecp_point = type { %struct.mbedtls_mpi, %struct.mbedtls_mpi, %struct.mbedtls_mpi }
%struct.mbedtls_mpi = type { ptr, i16, i16 }
%struct.mbedtls_ecp_keypair = type { %struct.mbedtls_ecp_group, %struct.mbedtls_mpi, %struct.mbedtls_ecp_point }

; Function Attrs: nounwind uwtable
define hidden i32 @mbedtls_ecp_copy(ptr noundef %0, ptr noundef %1) #0 {
  %3 = alloca ptr, align 8
  %4 = alloca ptr, align 8
  %5 = alloca i32, align 4
  store ptr %0, ptr %3, align 8, !tbaa !34
  store ptr %1, ptr %4, align 8, !tbaa !34
  call void @llvm.lifetime.start.p0(i64 4, ptr %5) #11
  store i32 -110, ptr %5, align 4, !tbaa !3
  br label %6

6:                                                ; preds = %2
  %7 = load ptr, ptr %3, align 8, !tbaa !34
  %8 = getelementptr inbounds nuw %struct.mbedtls_ecp_point, ptr %7, i32 0, i32 0
  %9 = load ptr, ptr %4, align 8, !tbaa !34
  %10 = getelementptr inbounds nuw %struct.mbedtls_ecp_point, ptr %9, i32 0, i32 0
  %11 = call i32 @mbedtls_mpi_copy(ptr noundef %8, ptr noundef %10)
  store i32 %11, ptr %5, align 4, !tbaa !3
  %12 = icmp ne i32 %11, 0
  br i1 %12, label %13, label %14

13:                                               ; preds = %6
  br label %39

14:                                               ; preds = %6
  br label %15

15:                                               ; preds = %14
  br label %16

16:                                               ; preds = %15
  br label %17

17:                                               ; preds = %16
  %18 = load ptr, ptr %3, align 8, !tbaa !34
  %19 = getelementptr inbounds nuw %struct.mbedtls_ecp_point, ptr %18, i32 0, i32 1
  %20 = load ptr, ptr %4, align 8, !tbaa !34
  %21 = getelementptr inbounds nuw %struct.mbedtls_ecp_point, ptr %20, i32 0, i32 1
  %22 = call i32 @mbedtls_mpi_copy(ptr noundef %19, ptr noundef %21)
  store i32 %22, ptr %5, align 4, !tbaa !3
  %23 = icmp ne i32 %22, 0
  br i1 %23, label %24, label %25

24:                                               ; preds = %17
  br label %39

25:                                               ; preds = %17
  br label %26

26:                                               ; preds = %25
  br label %27

27:                                               ; preds = %26
  br label %28

28:                                               ; preds = %27
  %29 = load ptr, ptr %3, align 8, !tbaa !34
  %30 = getelementptr inbounds nuw %struct.mbedtls_ecp_point, ptr %29, i32 0, i32 2
  %31 = load ptr, ptr %4, align 8, !tbaa !34
  %32 = getelementptr inbounds nuw %struct.mbedtls_ecp_point, ptr %31, i32 0, i32 2
  %33 = call i32 @mbedtls_mpi_copy(ptr noundef %30, ptr noundef %32)
  store i32 %33, ptr %5, align 4, !tbaa !3
  %34 = icmp ne i32 %33, 0
  br i1 %34, label %35, label %36

35:                                               ; preds = %28
  br label %39

36:                                               ; preds = %28
  br label %37

37:                                               ; preds = %36
  br label %38

38:                                               ; preds = %37
  br label %39

39:                                               ; preds = %38, %35, %24, %13
  %40 = load i32, ptr %5, align 4, !tbaa !3
  call void @llvm.lifetime.end.p0(i64 4, ptr %5) #11
  ret i32 %40
}

; Function Attrs: nounwind uwtable
define hidden i32 @mbedtls_ecp_group_copy(ptr noundef %0, ptr noundef %1) #0 {
  %3 = alloca ptr, align 8
  %4 = alloca ptr, align 8
  store ptr %0, ptr %3, align 8, !tbaa !25
  store ptr %1, ptr %4, align 8, !tbaa !25
  %5 = load ptr, ptr %3, align 8, !tbaa !25
  %6 = load ptr, ptr %4, align 8, !tbaa !25
  %7 = getelementptr inbounds nuw %struct.mbedtls_ecp_group, ptr %6, i32 0, i32 0
  %8 = load i32, ptr %7, align 8, !tbaa !35
  %9 = call i32 @mbedtls_ecp_group_load(ptr noundef %5, i32 noundef %8)
  ret i32 %9
}

; Function Attrs: nounwind uwtable
define hidden i32 @mbedtls_ecp_export(ptr noundef %0, ptr noundef %1, ptr noundef %2, ptr noundef %3) #0 {
  %5 = alloca i32, align 4
  %6 = alloca ptr, align 8
  %7 = alloca ptr, align 8
  %8 = alloca ptr, align 8
  %9 = alloca ptr, align 8
  %10 = alloca i32, align 4
  %11 = alloca i32, align 4
  store ptr %0, ptr %6, align 8, !tbaa !45
  store ptr %1, ptr %7, align 8, !tbaa !25
  store ptr %2, ptr %8, align 8, !tbaa !50
  store ptr %3, ptr %9, align 8, !tbaa !34
  call void @llvm.lifetime.start.p0(i64 4, ptr %10) #11
  store i32 -110, ptr %10, align 4, !tbaa !3
  %12 = load ptr, ptr %7, align 8, !tbaa !25
  %13 = icmp ne ptr %12, null
  br i1 %13, label %14, label %22

14:                                               ; preds = %4
  %15 = load ptr, ptr %7, align 8, !tbaa !25
  %16 = load ptr, ptr %6, align 8, !tbaa !45
  %17 = getelementptr inbounds nuw %struct.mbedtls_ecp_keypair, ptr %16, i32 0, i32 0
  %18 = call i32 @mbedtls_ecp_group_copy(ptr noundef %15, ptr noundef %17)
  store i32 %18, ptr %10, align 4, !tbaa !3
  %19 = icmp ne i32 %18, 0
  br i1 %19, label %20, label %22

20:                                               ; preds = %14
  %21 = load i32, ptr %10, align 4, !tbaa !3
  store i32 %21, ptr %5, align 4
  store i32 1, ptr %11, align 4
  br label %45

22:                                               ; preds = %14, %4
  %23 = load ptr, ptr %8, align 8, !tbaa !50
  %24 = icmp ne ptr %23, null
  br i1 %24, label %25, label %33

25:                                               ; preds = %22
  %26 = load ptr, ptr %8, align 8, !tbaa !50
  %27 = load ptr, ptr %6, align 8, !tbaa !45
  %28 = getelementptr inbounds nuw %struct.mbedtls_ecp_keypair, ptr %27, i32 0, i32 1
  %29 = call i32 @mbedtls_mpi_copy(ptr noundef %26, ptr noundef %28)
  store i32 %29, ptr %10, align 4, !tbaa !3
  %30 = icmp ne i32 %29, 0
  br i1 %30, label %31, label %33

31:                                               ; preds = %25
  %32 = load i32, ptr %10, align 4, !tbaa !3
  store i32 %32, ptr %5, align 4
  store i32 1, ptr %11, align 4
  br label %45

33:                                               ; preds = %25, %22
  %34 = load ptr, ptr %9, align 8, !tbaa !34
  %35 = icmp ne ptr %34, null
  br i1 %35, label %36, label %44

36:                                               ; preds = %33
  %37 = load ptr, ptr %9, align 8, !tbaa !34
  %38 = load ptr, ptr %6, align 8, !tbaa !45
  %39 = getelementptr inbounds nuw %struct.mbedtls_ecp_keypair, ptr %38, i32 0, i32 2
  %40 = call i32 @mbedtls_ecp_copy(ptr noundef %37, ptr noundef %39)
  store i32 %40, ptr %10, align 4, !tbaa !3
  %41 = icmp ne i32 %40, 0
  br i1 %41, label %42, label %44

42:                                               ; preds = %36
  %43 = load i32, ptr %10, align 4, !tbaa !3
  store i32 %43, ptr %5, align 4
  store i32 1, ptr %11, align 4
  br label %45

44:                                               ; preds = %36, %33
  store i32 0, ptr %5, align 4
  store i32 1, ptr %11, align 4
  br label %45

45:                                               ; preds = %44, %42, %31, %20
  call void @llvm.lifetime.end.p0(i64 4, ptr %10) #11
  %46 = load i32, ptr %5, align 4
  ret i32 %46
}