; Function Attrs: nounwind uwtable
define hidden i32 @mbedtls_ecp_export(ptr noundef %0, ptr noundef %1, ptr noundef %2, ptr noundef %3) local_unnamed_addr #7 {
  %.not = icmp eq ptr %1, null
  br i1 %.not, label %8, label %5

5:                                                ; preds = %4
  %6 = load i32, ptr %0, align 8, !tbaa !27
  %7 = tail call i32 @mbedtls_ecp_group_load(ptr noundef nonnull %1, i32 noundef %6) #21
  %.not18 = icmp eq i32 %7, 0
  br i1 %.not18, label %8, label %mbedtls_ecp_copy.exit.thread

8:                                                ; preds = %5, %4
  %.not19 = icmp eq ptr %2, null
  br i1 %.not19, label %12, label %9

9:                                                ; preds = %8
  %10 = getelementptr inbounds nuw i8, ptr %0, i64 192
  %11 = tail call i32 @mbedtls_mpi_copy(ptr noundef nonnull %2, ptr noundef nonnull %10) #21
  %.not20 = icmp eq i32 %11, 0
  br i1 %.not20, label %12, label %mbedtls_ecp_copy.exit.thread

12:                                               ; preds = %9, %8
  %.not21 = icmp eq ptr %3, null
  br i1 %.not21, label %23, label %13

13:                                               ; preds = %12
  %14 = getelementptr inbounds nuw i8, ptr %0, i64 208
  %15 = tail call i32 @mbedtls_mpi_copy(ptr noundef nonnull %3, ptr noundef nonnull %14) #21
  %.not.i = icmp eq i32 %15, 0
  br i1 %.not.i, label %16, label %mbedtls_ecp_copy.exit.thread

16:                                               ; preds = %13
  %17 = getelementptr inbounds nuw i8, ptr %3, i64 16
  %18 = getelementptr inbounds nuw i8, ptr %0, i64 224
  %19 = tail call i32 @mbedtls_mpi_copy(ptr noundef nonnull %17, ptr noundef nonnull %18) #21
  %.not8.i = icmp eq i32 %19, 0
  br i1 %.not8.i, label %mbedtls_ecp_copy.exit, label %mbedtls_ecp_copy.exit.thread

mbedtls_ecp_copy.exit:                            ; preds = %16
  %20 = getelementptr inbounds nuw i8, ptr %3, i64 32
  %21 = getelementptr inbounds nuw i8, ptr %0, i64 240
  %22 = tail call i32 @mbedtls_mpi_copy(ptr noundef nonnull %20, ptr noundef nonnull %21) #21
  %.not22 = icmp eq i32 %22, 0
  br i1 %.not22, label %23, label %mbedtls_ecp_copy.exit.thread

23:                                               ; preds = %mbedtls_ecp_copy.exit, %12
  br label %mbedtls_ecp_copy.exit.thread

mbedtls_ecp_copy.exit.thread:                     ; preds = %16, %13, %mbedtls_ecp_copy.exit, %9, %5, %23
  %.0 = phi i32 [ 0, %23 ], [ %7, %5 ], [ %11, %9 ], [ %22, %mbedtls_ecp_copy.exit ], [ %19, %16 ], [ %15, %13 ]
  ret i32 %.0
}